SF:/home/andy/dev/stan-jammer/src/stan_model.rs
FN:16,_RNvMNtCscTURbt7PeYO_7stanjam10stan_modelNtB2_9StanModel3new
FN:28,_RNvMNtCscTURbt7PeYO_7stanjam10stan_modelNtB2_9StanModel12add_function
FN:39,_RNvMNtCscTURbt7PeYO_7stanjam10stan_modelNtB2_9StanModel8add_data
FN:43,_RNvMNtCscTURbt7PeYO_7stanjam10stan_modelNtB2_9StanModel20add_transformed_data
FN:54,_RNvMNtCscTURbt7PeYO_7stanjam10stan_modelNtB2_9StanModel13add_parameter
FN:58,_RNvMNtCscTURbt7PeYO_7stanjam10stan_modelNtB2_9StanModel25add_transformed_parameter
FN:70,_RNvMNtCscTURbt7PeYO_7stanjam10stan_modelNtB2_9StanModel9add_model
FN:74,_RNvMNtCscTURbt7PeYO_7stanjam10stan_modelNtB2_9StanModel24add_generated_quantities
FN:85,_RNvMNtCscTURbt7PeYO_7stanjam10stan_modelNtB2_9StanModel18get_optional_block
FN:97,_RNvMNtCscTURbt7PeYO_7stanjam10stan_modelNtB2_9StanModel13get_functions
FN:101,_RNvMNtCscTURbt7PeYO_7stanjam10stan_modelNtB2_9StanModel8get_data
FN:105,_RNvMNtCscTURbt7PeYO_7stanjam10stan_modelNtB2_9StanModel20get_transformed_data
FN:109,_RNvMNtCscTURbt7PeYO_7stanjam10stan_modelNtB2_9StanModel14get_parameters
FN:113,_RNvMNtCscTURbt7PeYO_7stanjam10stan_modelNtB2_9StanModel26get_transformed_parameters
FN:120,_RNvMNtCscTURbt7PeYO_7stanjam10stan_modelNtB2_9StanModel9get_model
FN:124,_RNvMNtCscTURbt7PeYO_7stanjam10stan_modelNtB2_9StanModel24get_generated_quantities
FN:131,_RNvMNtCscTURbt7PeYO_7stanjam10stan_modelNtB2_9StanModel27collect_stan_model_segments
FN:144,_RNvMNtCscTURbt7PeYO_7stanjam10stan_modelNtB2_9StanModel21has_include_directive
FN:152,_RNvXs_NtCscTURbt7PeYO_7stanjam10stan_modelNtB4_9StanModelNtNtCs5cYH0lLSdLc_4core7default7Default7default
FN:90,_RNCNvMNtCscTURbt7PeYO_7stanjam10stan_modelNtB4_9StanModel18get_optional_block0B6_
FN:140,_RNCNvMNtCscTURbt7PeYO_7stanjam10stan_modelNtB4_9StanModel27collect_stan_model_segments0B6_
FN:147,_RNCNvMNtCscTURbt7PeYO_7stanjam10stan_modelNtB4_9StanModel21has_include_directive0B6_
FN:162,_RNvNtNtCscTURbt7PeYO_7stanjam10stan_model5testss_16can_create_model
FN:179,_RNvNtNtCscTURbt7PeYO_7stanjam10stan_model5testss_27can_add_function_statements
FN:192,_RNvNtNtCscTURbt7PeYO_7stanjam10stan_model5testss_22can_add_data_statement
FN:205,_RNvNtNtCscTURbt7PeYO_7stanjam10stan_model5testss_34can_add_transformed_data_statement
FN:218,_RNvNtNtCscTURbt7PeYO_7stanjam10stan_model5testss_27can_add_parameter_statement
FN:229,_RNvNtNtCscTURbt7PeYO_7stanjam10stan_model5testss_39can_add_transformed_parameter_statement
FN:246,_RNvNtNtCscTURbt7PeYO_7stanjam10stan_model5testss_23can_add_model_statement
FN:257,_RNvNtNtCscTURbt7PeYO_7stanjam10stan_model5testss_39can_add_generated_quantities_statements
FN:271,_RNvNtNtCscTURbt7PeYO_7stanjam10stan_model5testss_47can_tell_that_model_includes_includes_directive
FN:295,_RNvNtNtCscTURbt7PeYO_7stanjam10stan_model5testss_38default_model_is_the_same_as_new_model
FNDA:14,_RNvMNtCscTURbt7PeYO_7stanjam10stan_modelNtB2_9StanModel3new
FNDA:4,_RNvMNtCscTURbt7PeYO_7stanjam10stan_modelNtB2_9StanModel12add_function
FNDA:6,_RNvMNtCscTURbt7PeYO_7stanjam10stan_modelNtB2_9StanModel8add_data
FNDA:2,_RNvMNtCscTURbt7PeYO_7stanjam10stan_modelNtB2_9StanModel20add_transformed_data
FNDA:2,_RNvMNtCscTURbt7PeYO_7stanjam10stan_modelNtB2_9StanModel13add_parameter
FNDA:2,_RNvMNtCscTURbt7PeYO_7stanjam10stan_modelNtB2_9StanModel25add_transformed_parameter
FNDA:5,_RNvMNtCscTURbt7PeYO_7stanjam10stan_modelNtB2_9StanModel9add_model
FNDA:4,_RNvMNtCscTURbt7PeYO_7stanjam10stan_modelNtB2_9StanModel24add_generated_quantities
FNDA:12,_RNvMNtCscTURbt7PeYO_7stanjam10stan_modelNtB2_9StanModel18get_optional_block
FNDA:3,_RNvMNtCscTURbt7PeYO_7stanjam10stan_modelNtB2_9StanModel13get_functions
FNDA:3,_RNvMNtCscTURbt7PeYO_7stanjam10stan_modelNtB2_9StanModel8get_data
FNDA:3,_RNvMNtCscTURbt7PeYO_7stanjam10stan_modelNtB2_9StanModel20get_transformed_data
FNDA:3,_RNvMNtCscTURbt7PeYO_7stanjam10stan_modelNtB2_9StanModel14get_parameters
FNDA:3,_RNvMNtCscTURbt7PeYO_7stanjam10stan_modelNtB2_9StanModel26get_transformed_parameters
FNDA:3,_RNvMNtCscTURbt7PeYO_7stanjam10stan_modelNtB2_9StanModel9get_model
FNDA:3,_RNvMNtCscTURbt7PeYO_7stanjam10stan_modelNtB2_9StanModel24get_generated_quantities
FNDA:3,_RNvMNtCscTURbt7PeYO_7stanjam10stan_modelNtB2_9StanModel27collect_stan_model_segments
FNDA:3,_RNvMNtCscTURbt7PeYO_7stanjam10stan_modelNtB2_9StanModel21has_include_directive
FNDA:1,_RNvXs_NtCscTURbt7PeYO_7stanjam10stan_modelNtB4_9StanModelNtNtCs5cYH0lLSdLc_4core7default7Default7default
FNDA:3,_RNCNvMNtCscTURbt7PeYO_7stanjam10stan_modelNtB4_9StanModel18get_optional_block0B6_
FNDA:18,_RNCNvMNtCscTURbt7PeYO_7stanjam10stan_modelNtB4_9StanModel27collect_stan_model_segments0B6_
FNDA:13,_RNCNvMNtCscTURbt7PeYO_7stanjam10stan_modelNtB4_9StanModel21has_include_directive0B6_
FNDA:1,_RNvNtNtCscTURbt7PeYO_7stanjam10stan_model5testss_16can_create_model
FNDA:1,_RNvNtNtCscTURbt7PeYO_7stanjam10stan_model5testss_27can_add_function_statements
FNDA:1,_RNvNtNtCscTURbt7PeYO_7stanjam10stan_model5testss_22can_add_data_statement
FNDA:1,_RNvNtNtCscTURbt7PeYO_7stanjam10stan_model5testss_34can_add_transformed_data_statement
FNDA:1,_RNvNtNtCscTURbt7PeYO_7stanjam10stan_model5testss_27can_add_parameter_statement
FNDA:1,_RNvNtNtCscTURbt7PeYO_7stanjam10stan_model5testss_39can_add_transformed_parameter_statement
FNDA:1,_RNvNtNtCscTURbt7PeYO_7stanjam10stan_model5testss_23can_add_model_statement
FNDA:1,_RNvNtNtCscTURbt7PeYO_7stanjam10stan_model5testss_39can_add_generated_quantities_statements
FNDA:1,_RNvNtNtCscTURbt7PeYO_7stanjam10stan_model5testss_47can_tell_that_model_includes_includes_directive
FNDA:1,_RNvNtNtCscTURbt7PeYO_7stanjam10stan_model5testss_38default_model_is_the_same_as_new_model
FNF:32
FNH:32
DA:16,14
DA:17,14
DA:18,14
DA:19,14
DA:20,14
DA:21,14
DA:22,14
DA:23,14
DA:24,14
DA:25,14
DA:26,14
DA:28,4
DA:29,4
DA:30,1
DA:31,3
DA:32,3
DA:33,3
DA:34,3
DA:36,4
DA:39,6
DA:40,6
DA:41,6
DA:43,2
DA:44,2
DA:45,1
DA:46,1
DA:47,1
DA:48,1
DA:49,1
DA:50,1
DA:52,2
DA:54,2
DA:55,2
DA:56,2
DA:58,2
DA:59,2
DA:60,1
DA:61,1
DA:62,1
DA:63,1
DA:64,1
DA:65,1
DA:66,1
DA:68,2
DA:70,5
DA:71,5
DA:72,5
DA:74,4
DA:75,4
DA:76,1
DA:77,3
DA:78,3
DA:79,3
DA:80,3
DA:81,3
DA:83,4
DA:85,12
DA:86,12
DA:87,12
DA:88,12
DA:89,12
DA:90,12
DA:91,12
DA:92,12
DA:93,12
DA:94,12
DA:95,12
DA:97,3
DA:98,3
DA:99,3
DA:101,3
DA:102,3
DA:103,3
DA:105,3
DA:106,3
DA:107,3
DA:109,3
DA:110,3
DA:111,3
DA:113,3
DA:114,3
DA:115,3
DA:116,3
DA:117,3
DA:118,3
DA:120,3
DA:121,3
DA:122,3
DA:124,3
DA:125,3
DA:126,3
DA:127,3
DA:128,3
DA:129,3
DA:131,3
DA:132,3
DA:133,3
DA:134,3
DA:135,3
DA:136,3
DA:137,3
DA:138,3
DA:139,3
DA:140,18
DA:141,3
DA:142,3
DA:144,3
DA:145,3
DA:146,3
DA:147,13
DA:148,3
DA:152,1
DA:153,1
DA:154,1
DA:162,1
DA:163,1
DA:164,1
DA:165,1
DA:166,1
DA:167,1
DA:168,1
DA:169,1
DA:170,1
DA:171,1
DA:172,1
DA:173,1
DA:174,1
DA:175,1
DA:176,1
DA:179,1
DA:180,1
DA:181,1
DA:182,1
DA:183,1
DA:184,1
DA:185,1
DA:186,1
DA:187,1
DA:188,1
DA:189,1
DA:192,1
DA:193,1
DA:194,1
DA:195,1
DA:196,1
DA:197,1
DA:198,1
DA:199,1
DA:200,1
DA:201,1
DA:202,1
DA:205,1
DA:206,1
DA:207,1
DA:208,1
DA:209,1
DA:210,1
DA:211,1
DA:212,1
DA:213,1
DA:214,1
DA:215,1
DA:218,1
DA:219,1
DA:220,1
DA:221,1
DA:222,1
DA:223,1
DA:224,1
DA:225,1
DA:226,1
DA:229,1
DA:230,1
DA:231,1
DA:232,1
DA:233,1
DA:234,1
DA:235,1
DA:236,1
DA:237,1
DA:238,1
DA:239,1
DA:240,1
DA:241,1
DA:242,1
DA:243,1
DA:246,1
DA:247,1
DA:248,1
DA:249,1
DA:250,1
DA:251,1
DA:252,1
DA:253,1
DA:254,1
DA:257,1
DA:258,1
DA:259,1
DA:260,1
DA:261,1
DA:262,1
DA:263,1
DA:264,1
DA:265,1
DA:266,1
DA:267,1
DA:268,1
DA:271,1
DA:272,1
DA:273,1
DA:274,1
DA:275,1
DA:276,1
DA:277,1
DA:279,1
DA:280,1
DA:281,1
DA:282,1
DA:283,1
DA:284,1
DA:286,1
DA:287,1
DA:288,1
DA:289,1
DA:290,1
DA:291,1
DA:292,1
DA:295,1
DA:296,1
DA:297,1
DA:298,1
DA:299,1
DA:300,1
BRF:0
BRH:0
LF:236
LH:236
end_of_record
SF:/home/andy/dev/stan-jammer/src/stan_model_block.rs
FN:34,_RNvNtNtCscTURbt7PeYO_7stanjam16stan_model_block5testss_8test_new
FN:45,_RNvNtNtCscTURbt7PeYO_7stanjam16stan_model_block5testss_13test_add_line
FN:59,_RNvNtNtCscTURbt7PeYO_7stanjam16stan_model_block5testss_51get_code_returns_an_iterator_over_the_lines_of_code
FN:53,_RNCNvNtNtCscTURbt7PeYO_7stanjam16stan_model_block5testss_13test_add_line0B7_
FN:12,_RNvMNtCscTURbt7PeYO_7stanjam16stan_model_blockNtB2_14StanModelBlock3new
FN:19,_RNvMNtCscTURbt7PeYO_7stanjam16stan_model_blockNtB2_14StanModelBlock3add
FN:23,_RNvMNtCscTURbt7PeYO_7stanjam16stan_model_blockNtB2_14StanModelBlock8get_code
FNDA:1,_RNvNtNtCscTURbt7PeYO_7stanjam16stan_model_block5testss_8test_new
FNDA:1,_RNvNtNtCscTURbt7PeYO_7stanjam16stan_model_block5testss_13test_add_line
FNDA:1,_RNvNtNtCscTURbt7PeYO_7stanjam16stan_model_block5testss_51get_code_returns_an_iterator_over_the_lines_of_code
FNDA:2,_RNCNvNtNtCscTURbt7PeYO_7stanjam16stan_model_block5testss_13test_add_line0B7_
FNDA:79,_RNvMNtCscTURbt7PeYO_7stanjam16stan_model_blockNtB2_14StanModelBlock3new
FNDA:57,_RNvMNtCscTURbt7PeYO_7stanjam16stan_model_blockNtB2_14StanModelBlock3add
FNDA:22,_RNvMNtCscTURbt7PeYO_7stanjam16stan_model_blockNtB2_14StanModelBlock8get_code
FNF:7
FNH:7
DA:12,79
DA:13,79
DA:14,79
DA:15,79
DA:16,79
DA:17,79
DA:19,57
DA:20,57
DA:21,57
DA:23,22
DA:24,22
DA:25,22
DA:34,1
DA:35,1
DA:36,1
DA:37,1
DA:38,1
DA:39,1
DA:40,1
DA:41,1
DA:42,1
DA:45,1
DA:46,1
DA:47,1
DA:48,1
DA:49,1
DA:50,1
DA:51,1
DA:52,1
DA:53,2
DA:54,1
DA:55,1
DA:56,1
DA:59,1
DA:60,1
DA:61,1
DA:62,1
DA:63,1
DA:64,1
DA:65,1
DA:66,1
DA:67,1
DA:68,1
BRF:0
BRH:0
LF:44
LH:44
end_of_record
SF:/home/andy/dev/stan-jammer/src/stan_source_parser.rs
FN:78,_RNvXNtNtCscTURbt7PeYO_7stanjam18stan_source_parser5testsNtB2_16TestSourceParserNtB4_12SourceParser11get_folders
FN:86,_RNvXNtNtCscTURbt7PeYO_7stanjam18stan_source_parser5testsNtB2_16TestSourceParserNtB4_12SourceParser19get_files_in_folder
FN:90,_RNvXNtNtCscTURbt7PeYO_7stanjam18stan_source_parser5testsNtB2_16TestSourceParserNtB4_12SourceParser20get_files_in_folders
FN:94,_RNvXNtNtCscTURbt7PeYO_7stanjam18stan_source_parser5testsNtB2_16TestSourceParserNtB4_12SourceParser20find_file_in_folders
FN:98,_RNvXNtNtCscTURbt7PeYO_7stanjam18stan_source_parser5testsNtB2_16TestSourceParserNtB4_12SourceParser9read_file
FN:110,_RNvNtNtCscTURbt7PeYO_7stanjam18stan_source_parser5testss_42test_all_methods_in_the_test_source_parser
FN:152,_RNvNtNtCscTURbt7PeYO_7stanjam18stan_source_parser5testss_23test_stan_source_parser
FN:165,_RNvNtNtCscTURbt7PeYO_7stanjam18stan_source_parser5testss_37can_add_folders_to_parser_search_list
FN:181,_RNvNtNtCscTURbt7PeYO_7stanjam18stan_source_parser5testss_25can_find_files_in_folders
FN:23,_RNvMNtCscTURbt7PeYO_7stanjam18stan_source_parserNtB2_16StanSourceParser3new
FN:30,_RNvMNtCscTURbt7PeYO_7stanjam18stan_source_parserNtB2_16StanSourceParser10add_folder
FNDA:1,_RNvXNtNtCscTURbt7PeYO_7stanjam18stan_source_parser5testsNtB2_16TestSourceParserNtB4_12SourceParser11get_folders
FNDA:1,_RNvXNtNtCscTURbt7PeYO_7stanjam18stan_source_parser5testsNtB2_16TestSourceParserNtB4_12SourceParser19get_files_in_folder
FNDA:1,_RNvXNtNtCscTURbt7PeYO_7stanjam18stan_source_parser5testsNtB2_16TestSourceParserNtB4_12SourceParser20get_files_in_folders
FNDA:1,_RNvXNtNtCscTURbt7PeYO_7stanjam18stan_source_parser5testsNtB2_16TestSourceParserNtB4_12SourceParser20find_file_in_folders
FNDA:1,_RNvXNtNtCscTURbt7PeYO_7stanjam18stan_source_parser5testsNtB2_16TestSourceParserNtB4_12SourceParser9read_file
FNDA:1,_RNvNtNtCscTURbt7PeYO_7stanjam18stan_source_parser5testss_42test_all_methods_in_the_test_source_parser
FNDA:1,_RNvNtNtCscTURbt7PeYO_7stanjam18stan_source_parser5testss_23test_stan_source_parser
FNDA:1,_RNvNtNtCscTURbt7PeYO_7stanjam18stan_source_parser5testss_37can_add_folders_to_parser_search_list
FNDA:1,_RNvNtNtCscTURbt7PeYO_7stanjam18stan_source_parser5testss_25can_find_files_in_folders
FNDA:2,_RNvMNtCscTURbt7PeYO_7stanjam18stan_source_parserNtB2_16StanSourceParser3new
FNDA:2,_RNvMNtCscTURbt7PeYO_7stanjam18stan_source_parserNtB2_16StanSourceParser10add_folder
FNF:11
FNH:11
DA:23,2
DA:24,2
DA:25,2
DA:26,2
DA:27,2
DA:28,2
DA:30,2
DA:31,2
DA:32,2
DA:78,1
DA:79,1
DA:80,1
DA:81,1
DA:82,1
DA:83,1
DA:84,1
DA:86,1
DA:87,1
DA:88,1
DA:90,1
DA:91,1
DA:92,1
DA:94,1
DA:95,1
DA:96,1
DA:98,1
DA:99,1
DA:100,1
DA:101,1
DA:102,1
DA:103,1
DA:104,1
DA:105,1
DA:106,1
DA:110,1
DA:111,1
DA:112,1
DA:113,1
DA:114,1
DA:115,1
DA:116,1
DA:117,1
DA:118,1
DA:119,1
DA:120,1
DA:121,1
DA:122,1
DA:123,1
DA:125,1
DA:126,1
DA:127,1
DA:128,1
DA:129,1
DA:131,1
DA:132,1
DA:133,1
DA:134,1
DA:135,1
DA:136,1
DA:137,1
DA:138,1
DA:139,1
DA:140,1
DA:141,1
DA:142,1
DA:143,1
DA:144,1
DA:145,1
DA:146,1
DA:147,1
DA:148,1
DA:149,1
DA:152,1
DA:153,1
DA:154,1
DA:156,1
DA:157,1
DA:158,1
DA:159,1
DA:160,1
DA:161,1
DA:162,1
DA:165,1
DA:166,1
DA:167,1
DA:168,1
DA:169,1
DA:170,1
DA:171,1
DA:172,1
DA:173,1
DA:174,1
DA:175,1
DA:176,1
DA:177,1
DA:178,1
DA:181,1
DA:182,1
DA:183,1
DA:184,1
DA:185,1
DA:186,1
DA:187,1
BRF:0
BRH:0
LF:103
LH:103
end_of_record